target datalayout = "e-m:e-p270:32:32-p271:32:32-p272:64:64-i64:64-i128:128-f80:128-n8:16:32:64-S128"
target triple = "x86_64-pc-linux-gnu"

; Function Attrs: inlinehint nounwind uwtable
define internal ptr @lean_box(i64 noundef %0) #0 {
  %2 = alloca i64, align 8
  store i64 %0, ptr %2, align 8, !tbaa !8
  %3 = load i64, ptr %2, align 8, !tbaa !8
  %4 = shl i64 %3, 1
  %5 = or i64 %4, 1
  %6 = inttoptr i64 %5 to ptr
  ret ptr %6
}

; Function Attrs: inlinehint nounwind uwtable
define internal ptr @lean_usize_to_nat(i64 noundef %0) #0 {
  %2 = alloca ptr, align 8
  %3 = alloca i64, align 8
  store i64 %0, ptr %3, align 8, !tbaa !8
  %4 = load i64, ptr %3, align 8, !tbaa !8
  %5 = icmp ule i64 %4, 9223372036854775807
  %6 = zext i1 %5 to i32
  %7 = sext i32 %6 to i64
  %8 = call i64 @llvm.expect.i64(i64 %7, i64 1)
  %9 = icmp ne i64 %8, 0
  br i1 %9, label %10, label %13

10:                                               ; preds = %1
  %11 = load i64, ptr %3, align 8, !tbaa !8
  %12 = call ptr @lean_box(i64 noundef %11)
  store ptr %12, ptr %2, align 8
  br label %16

13:                                               ; preds = %1
  %14 = load i64, ptr %3, align 8, !tbaa !8
  %15 = call ptr @lean_big_usize_to_nat(i64 noundef %14)
  store ptr %15, ptr %2, align 8
  br label %16

16:                                               ; preds = %13, %10
  %17 = load ptr, ptr %2, align 8
  ret ptr %17
}

; Function Attrs: inlinehint nounwind uwtable
define internal ptr @lean_unsigned_to_nat(i32 noundef %0) #0 {
  %2 = alloca i32, align 4
  store i32 %0, ptr %2, align 4, !tbaa !11
  %3 = load i32, ptr %2, align 4, !tbaa !11
  %4 = zext i32 %3 to i64
  %5 = call ptr @lean_usize_to_nat(i64 noundef %4)
  ret ptr %5
}

; Function Attrs: nounwind uwtable
define ptr @l_Lean_Meta_CoeFnType_toCtorIdx(i8 noundef zeroext %0) #2 {
  %2 = alloca ptr, align 8
  %3 = alloca i8, align 1
  %4 = alloca ptr, align 8
  %5 = alloca ptr, align 8
  %6 = alloca ptr, align 8
  store i8 %0, ptr %3, align 1, !tbaa !10
  br label %7

7:                                                ; preds = %1
  %8 = load i8, ptr %3, align 1, !tbaa !10
  %9 = zext i8 %8 to i32
  switch i32 %9, label %16 [
    i32 0, label %10
    i32 1, label %13
  ]

10:                                               ; preds = %7
  call void @llvm.lifetime.start.p0(i64 8, ptr %4) #8
  %11 = call ptr @lean_unsigned_to_nat(i32 noundef 0)
  store ptr %11, ptr %4, align 8, !tbaa !4
  %12 = load ptr, ptr %4, align 8, !tbaa !4
  store ptr %12, ptr %2, align 8
  call void @llvm.lifetime.end.p0(i64 8, ptr %4) #8
  br label %19

13:                                               ; preds = %7
  call void @llvm.lifetime.start.p0(i64 8, ptr %5) #8
  %14 = call ptr @lean_unsigned_to_nat(i32 noundef 1)
  store ptr %14, ptr %5, align 8, !tbaa !4
  %15 = load ptr, ptr %5, align 8, !tbaa !4
  store ptr %15, ptr %2, align 8
  call void @llvm.lifetime.end.p0(i64 8, ptr %5) #8
  br label %19

16:                                               ; preds = %7
  call void @llvm.lifetime.start.p0(i64 8, ptr %6) #8
  %17 = call ptr @lean_unsigned_to_nat(i32 noundef 2)
  store ptr %17, ptr %6, align 8, !tbaa !4
  %18 = load ptr, ptr %6, align 8, !tbaa !4
  store ptr %18, ptr %2, align 8
  call void @llvm.lifetime.end.p0(i64 8, ptr %6) #8
  br label %19

19:                                               ; preds = %16, %13, %10
  %20 = load ptr, ptr %2, align 8
  ret ptr %20
}